; Function Attrs: nounwind uwtable
define dso_local noundef i64 @hashhandler(ptr noundef readnone captures(none) %0) local_unnamed_addr #0 {
  %2 = tail call noundef ptr @palloc0(i64 noundef 240) #9
  store i32 437, ptr %2, align 4
  %3 = getelementptr inbounds nuw i8, ptr %2, i64 4
  store i16 1, ptr %3, align 4
  %4 = getelementptr inbounds nuw i8, ptr %2, i64 6
  store i16 3, ptr %4, align 2
  %5 = getelementptr inbounds nuw i8, ptr %2, i64 8
  store i16 3, ptr %5, align 8
  %6 = getelementptr inbounds nuw i8, ptr %2, i64 10
  store i8 0, ptr %6, align 2
  %7 = getelementptr inbounds nuw i8, ptr %2, i64 11
  store i8 0, ptr %7, align 1
  %8 = getelementptr inbounds nuw i8, ptr %2, i64 12
  store i8 1, ptr %8, align 4
  %9 = getelementptr inbounds nuw i8, ptr %2, i64 13
  %10 = getelementptr inbounds nuw i8, ptr %2, i64 20
  tail call void @llvm.memset.p0.i64(ptr noundef nonnull align 1 dereferenceable(7) %9, i8 0, i64 7, i1 false)
  store i8 1, ptr %10, align 4
  %11 = getelementptr inbounds nuw i8, ptr %2, i64 21
  %12 = getelementptr inbounds nuw i8, ptr %2, i64 26
  tail call void @llvm.memset.p0.i64(ptr noundef nonnull align 1 dereferenceable(5) %11, i8 0, i64 5, i1 false)
  store i8 1, ptr %12, align 2
  %13 = getelementptr inbounds nuw i8, ptr %2, i64 28
  store i32 23, ptr %13, align 4
  %14 = getelementptr inbounds nuw i8, ptr %2, i64 32
  store ptr @hashbuild, ptr %14, align 8
  %15 = getelementptr inbounds nuw i8, ptr %2, i64 40
  store ptr @hashbuildempty, ptr %15, align 8
  %16 = getelementptr inbounds nuw i8, ptr %2, i64 48
  store ptr @hashinsert, ptr %16, align 8
  %17 = getelementptr inbounds nuw i8, ptr %2, i64 56
  store ptr null, ptr %17, align 8
  %18 = getelementptr inbounds nuw i8, ptr %2, i64 64
  store ptr @hashbulkdelete, ptr %18, align 8
  %19 = getelementptr inbounds nuw i8, ptr %2, i64 72
  store ptr @hashvacuumcleanup, ptr %19, align 8
  %20 = getelementptr inbounds nuw i8, ptr %2, i64 80
  store ptr null, ptr %20, align 8
  %21 = getelementptr inbounds nuw i8, ptr %2, i64 88
  store ptr @hashcostestimate, ptr %21, align 8
  %22 = getelementptr inbounds nuw i8, ptr %2, i64 96
  store ptr null, ptr %22, align 8
  %23 = getelementptr inbounds nuw i8, ptr %2, i64 104
  store ptr @hashoptions, ptr %23, align 8
  %24 = getelementptr inbounds nuw i8, ptr %2, i64 112
  %25 = getelementptr inbounds nuw i8, ptr %2, i64 128
  tail call void @llvm.memset.p0.i64(ptr noundef nonnull align 8 dereferenceable(16) %24, i8 0, i64 16, i1 false)
  store ptr @hashvalidate, ptr %25, align 8
  %26 = getelementptr inbounds nuw i8, ptr %2, i64 136
  store ptr @hashadjustmembers, ptr %26, align 8
  %27 = getelementptr inbounds nuw i8, ptr %2, i64 144
  store ptr @hashbeginscan, ptr %27, align 8
  %28 = getelementptr inbounds nuw i8, ptr %2, i64 152
  store ptr @hashrescan, ptr %28, align 8
  %29 = getelementptr inbounds nuw i8, ptr %2, i64 160
  store ptr @hashgettuple, ptr %29, align 8
  %30 = getelementptr inbounds nuw i8, ptr %2, i64 168
  store ptr @hashgetbitmap, ptr %30, align 8
  %31 = getelementptr inbounds nuw i8, ptr %2, i64 176
  store ptr @hashendscan, ptr %31, align 8
  %32 = getelementptr inbounds nuw i8, ptr %2, i64 184
  %33 = getelementptr inbounds nuw i8, ptr %2, i64 224
  tail call void @llvm.memset.p0.i64(ptr noundef nonnull align 8 dereferenceable(40) %32, i8 0, i64 40, i1 false)
  store ptr @hashtranslatestrategy, ptr %33, align 8
  %34 = getelementptr inbounds nuw i8, ptr %2, i64 232
  store ptr @hashtranslatecmptype, ptr %34, align 8
  %35 = ptrtoint ptr %2 to i64
  ret i64 %35
}